(dp0
S'elevAC'
p1
F0.1
sS'eloffset'
p2
F-31.24126346
sS'azAC'
p3
I2
sS'elevSP'
p4
I6
sS'azSP'
p5
I6
sS'degtoctsAZ'
p6
F2844.444444
sS'azoffset'
p7
F324.0057178
sS'degtoctsEL'
p8
F13466.77
sS'azDC'
p9
I2
sS'elevDC'
p10
F0.1
sS'location'
p11
S'UCSB'
p12
s.