(dp0
S'linpars3'
p1
(lp2
F0.00771685
aF0.12552887
asS'linpars2'
p3
(lp4
F0.00710006
aF0.03012924
asS'linpars1'
p5
(lp6
F0.00956788
aF0.05284956
asS'expars1'
p7
(lp8
F-0.84993233
aF9.78598864
aF0.66668683
aF12.19587388
asS'expars2'
p9
(lp10
F-1.63546518
aF15.64129845
aF1.3942447
aF12.20374749
asS'expars3'
p11
(lp12
F-0.46086952
aF5.05960299
aF0.39081414
aF8.34334881
as.